target datalayout = "e-m:e-p270:32:32-p271:32:32-p272:64:64-i64:64-i128:128-f80:128-n8:16:32:64-S128"
target triple = "x86_64-pc-linux-gnu"

%struct.diff_opt_t = type { i32, i32, i32, i32, i32, i32, i32, i32, i32, double, i32, i32, double, i8, i32, i32, i32, i32, i32, i32, i32, i32, ptr, ptr, i32, i64, i32, i64, i64, i32, i64, i64, [32 x i64], [32 x i64], [32 x i64], [32 x i64], [32 x i64], [32 x i64], [2 x ptr], [2 x ptr], [2 x %struct.h5tools_vol_info_t], [2 x %struct.h5tools_vfd_info_t], [2 x i8], [2 x i8], i64 }
%struct.h5tools_vol_info_t = type { i32, ptr, %union.anon }
%union.anon = type { ptr }
%struct.h5tools_vfd_info_t = type { i32, ptr, %union.anon.0 }
%union.anon.0 = type { ptr }

; Function Attrs: nounwind willreturn memory(read) uwtable
define i32 @print_objname(ptr noundef %0, i64 noundef %1) #0 {
  %3 = alloca ptr, align 8
  %4 = alloca i64, align 8
  store ptr %0, ptr %3, align 8, !tbaa !3
  store i64 %1, ptr %4, align 8, !tbaa !7
  %5 = load ptr, ptr %3, align 8, !tbaa !3
  %6 = getelementptr inbounds nuw %struct.diff_opt_t, ptr %5, i32 0, i32 2
  %7 = load i32, ptr %6, align 8, !tbaa !9
  %8 = icmp ne i32 %7, 0
  br i1 %8, label %12, label %9

9:                                                ; preds = %2
  %10 = load i64, ptr %4, align 8, !tbaa !7
  %11 = icmp ne i64 %10, 0
  br i1 %11, label %12, label %18

12:                                               ; preds = %9, %2
  %13 = load ptr, ptr %3, align 8, !tbaa !3
  %14 = getelementptr inbounds nuw %struct.diff_opt_t, ptr %13, i32 0, i32 0
  %15 = load i32, ptr %14, align 8, !tbaa !15
  %16 = icmp ne i32 %15, 0
  %17 = xor i1 %16, true
  br label %18

18:                                               ; preds = %12, %9
  %19 = phi i1 [ false, %9 ], [ %17, %12 ]
  %20 = select i1 %19, i32 1, i32 0
  ret i32 %20
}