; Function Attrs: mustprogress nofree norecurse nosync nounwind willreturn memory(argmem: read) uwtable
define range(i32 0, 2) i32 @print_objname(ptr noundef readonly captures(none) %0, i64 noundef %1) local_unnamed_addr #0 {
  %3 = getelementptr inbounds nuw i8, ptr %0, i64 8
  %4 = load i32, ptr %3, align 8, !tbaa !3
  %5 = icmp ne i32 %4, 0
  %6 = icmp ne i64 %1, 0
  %or.cond = or i1 %6, %5
  br i1 %or.cond, label %7, label %10

7:                                                ; preds = %2
  %8 = load i32, ptr %0, align 8, !tbaa !13
  %.not = icmp eq i32 %8, 0
  %9 = zext i1 %.not to i32
  br label %10

10:                                               ; preds = %2, %7
  %11 = phi i32 [ %9, %7 ], [ 0, %2 ]
  ret i32 %11
}